target datalayout = "e-m:e-p270:32:32-p271:32:32-p272:64:64-i64:64-i128:128-f80:128-n8:16:32:64-S128"
target triple = "x86_64-pc-linux-gnu"

%struct.strbuf = type { i64, i64, ptr }

@sane_ctype = external constant [256 x i8], align 16

; Function Attrs: nounwind uwtable
define dso_local void @strbuf_rtrim(ptr noundef %0) #0 {
  %2 = alloca ptr, align 8
  store ptr %0, ptr %2, align 8, !tbaa !18
  br label %3

3:                                                ; preds = %26, %1
  %4 = load ptr, ptr %2, align 8, !tbaa !18
  %5 = getelementptr inbounds nuw %struct.strbuf, ptr %4, i32 0, i32 1
  %6 = load i64, ptr %5, align 8, !tbaa !22
  %7 = icmp ugt i64 %6, 0
  br i1 %7, label %8, label %24

8:                                                ; preds = %3
  %9 = load ptr, ptr %2, align 8, !tbaa !18
  %10 = getelementptr inbounds nuw %struct.strbuf, ptr %9, i32 0, i32 2
  %11 = load ptr, ptr %10, align 8, !tbaa !23
  %12 = load ptr, ptr %2, align 8, !tbaa !18
  %13 = getelementptr inbounds nuw %struct.strbuf, ptr %12, i32 0, i32 1
  %14 = load i64, ptr %13, align 8, !tbaa !22
  %15 = sub i64 %14, 1
  %16 = getelementptr inbounds nuw i8, ptr %11, i64 %15
  %17 = load i8, ptr %16, align 1, !tbaa !9
  %18 = zext i8 %17 to i64
  %19 = getelementptr inbounds nuw [256 x i8], ptr @sane_ctype, i64 0, i64 %18
  %20 = load i8, ptr %19, align 1, !tbaa !9
  %21 = zext i8 %20 to i32
  %22 = and i32 %21, 1
  %23 = icmp ne i32 %22, 0
  br label %24

24:                                               ; preds = %8, %3
  %25 = phi i1 [ false, %3 ], [ %23, %8 ]
  br i1 %25, label %26, label %31

26:                                               ; preds = %24
  %27 = load ptr, ptr %2, align 8, !tbaa !18
  %28 = getelementptr inbounds nuw %struct.strbuf, ptr %27, i32 0, i32 1
  %29 = load i64, ptr %28, align 8, !tbaa !22
  %30 = add i64 %29, -1
  store i64 %30, ptr %28, align 8, !tbaa !22
  br label %3, !llvm.loop !27

31:                                               ; preds = %24
  %32 = load ptr, ptr %2, align 8, !tbaa !18
  %33 = getelementptr inbounds nuw %struct.strbuf, ptr %32, i32 0, i32 2
  %34 = load ptr, ptr %33, align 8, !tbaa !23
  %35 = load ptr, ptr %2, align 8, !tbaa !18
  %36 = getelementptr inbounds nuw %struct.strbuf, ptr %35, i32 0, i32 1
  %37 = load i64, ptr %36, align 8, !tbaa !22
  %38 = getelementptr inbounds nuw i8, ptr %34, i64 %37
  store i8 0, ptr %38, align 1, !tbaa !9
  ret void
}