; Function Attrs: nofree norecurse nosync nounwind memory(readwrite, inaccessiblemem: none) uwtable
define dso_local void @strbuf_rtrim(ptr noundef captures(none) %0) local_unnamed_addr #9 {
  %2 = getelementptr inbounds nuw i8, ptr %0, i64 8
  %.promoted = load i64, ptr %2, align 8, !tbaa !16
  %.not7 = icmp eq i64 %.promoted, 0
  %.phi.trans.insert = getelementptr inbounds nuw i8, ptr %0, i64 16
  %.pre = load ptr, ptr %.phi.trans.insert, align 8, !tbaa !12
  br i1 %.not7, label %.critedge, label %.lr.ph

.lr.ph:                                           ; preds = %1
  %invariant.gep = getelementptr i8, ptr %.pre, i64 -1
  br label %3

3:                                                ; preds = %.lr.ph, %10
  %4 = phi i64 [ %.promoted, %.lr.ph ], [ %11, %10 ]
  %gep = getelementptr i8, ptr %invariant.gep, i64 %4
  %5 = load i8, ptr %gep, align 1, !tbaa !4
  %6 = zext i8 %5 to i64
  %7 = getelementptr inbounds nuw [256 x i8], ptr @sane_ctype, i64 0, i64 %6
  %8 = load i8, ptr %7, align 1, !tbaa !4
  %9 = and i8 %8, 1
  %.not6 = icmp eq i8 %9, 0
  br i1 %.not6, label %.critedge, label %10

10:                                               ; preds = %3
  %11 = add i64 %4, -1
  store i64 %11, ptr %2, align 8, !tbaa !16
  %.not = icmp eq i64 %11, 0
  br i1 %.not, label %.critedge, label %3, !llvm.loop !18

.critedge:                                        ; preds = %3, %10, %1
  %.lcssa = phi i64 [ 0, %1 ], [ 0, %10 ], [ %4, %3 ]
  %12 = getelementptr inbounds nuw i8, ptr %.pre, i64 %.lcssa
  store i8 0, ptr %12, align 1, !tbaa !4
  ret void
}